; Function Attrs: nofree norecurse nosync nounwind memory(read, inaccessiblemem: none) uwtable
define hidden zeroext i8 @SDL_FindColor(ptr noundef readonly captures(none) %0, i8 noundef zeroext %1, i8 noundef zeroext %2, i8 noundef zeroext %3, i8 noundef zeroext %4) local_unnamed_addr #10 {
  %6 = load i32, ptr %0, align 8
  %7 = icmp sgt i32 %6, 0
  br i1 %7, label %.lr.ph, label %._crit_edge

.lr.ph:                                           ; preds = %5
  %8 = getelementptr inbounds nuw i8, ptr %0, i64 8
  %9 = load ptr, ptr %8, align 8
  %10 = zext i8 %1 to i32
  %11 = zext i8 %2 to i32
  %12 = zext i8 %3 to i32
  %13 = zext i8 %4 to i32
  %wide.trip.count = zext nneg i32 %6 to i64
  br label %14

14:                                               ; preds = %.lr.ph, %42
  %indvars.iv = phi i64 [ 0, %.lr.ph ], [ %indvars.iv.next, %42 ]
  %.034 = phi i8 [ 0, %.lr.ph ], [ %.2, %42 ]
  %.02932 = phi i32 [ -1, %.lr.ph ], [ %.130, %42 ]
  %15 = getelementptr inbounds nuw %struct.SDL_Color, ptr %9, i64 %indvars.iv
  %16 = load i8, ptr %15, align 1
  %17 = zext i8 %16 to i32
  %18 = sub nsw i32 %17, %10
  %19 = getelementptr inbounds nuw i8, ptr %15, i64 1
  %20 = load i8, ptr %19, align 1
  %21 = zext i8 %20 to i32
  %22 = sub nsw i32 %21, %11
  %23 = getelementptr inbounds nuw i8, ptr %15, i64 2
  %24 = load i8, ptr %23, align 1
  %25 = zext i8 %24 to i32
  %26 = sub nsw i32 %25, %12
  %27 = getelementptr inbounds nuw i8, ptr %15, i64 3
  %28 = load i8, ptr %27, align 1
  %29 = zext i8 %28 to i32
  %30 = sub nsw i32 %29, %13
  %31 = mul nsw i32 %18, %18
  %32 = mul nsw i32 %22, %22
  %33 = add nuw nsw i32 %32, %31
  %34 = mul nsw i32 %26, %26
  %35 = add nuw nsw i32 %33, %34
  %36 = mul nsw i32 %30, %30
  %37 = add nuw nsw i32 %35, %36
  %38 = icmp ult i32 %37, %.02932
  br i1 %38, label %39, label %42

39:                                               ; preds = %14
  %40 = trunc i64 %indvars.iv to i8
  %41 = icmp eq i32 %37, 0
  br i1 %41, label %._crit_edge, label %42

42:                                               ; preds = %39, %14
  %.130 = phi i32 [ %.02932, %14 ], [ %37, %39 ]
  %.2 = phi i8 [ %.034, %14 ], [ %40, %39 ]
  %indvars.iv.next = add nuw nsw i64 %indvars.iv, 1
  %exitcond.not = icmp eq i64 %indvars.iv.next, %wide.trip.count
  br i1 %exitcond.not, label %._crit_edge, label %14, !llvm.loop !13

._crit_edge:                                      ; preds = %42, %39, %5
  %.1 = phi i8 [ 0, %5 ], [ %40, %39 ], [ %.2, %42 ]
  ret i8 %.1
}